target datalayout = "e-m:e-p270:32:32-p271:32:32-p272:64:64-i64:64-i128:128-f80:128-n8:16:32:64-S128"
target triple = "x86_64-pc-linux-gnu"

%struct.expert_field = type { i32, i32 }

@hf_l2tp_avp_mandatory = internal global i32 0, align 4
@hf_l2tp_avp_hidden = internal global i32 0, align 4
@hf_l2tp_avp_length = internal global i32 0, align 4
@hf_l2tp_avp_vendor_id = internal global i32 0, align 4
@hf_l2tp_cablelabs_avp_type = internal global i32 0, align 4
@hf_l2tp_cablel_avp_l_bit = internal global i32 0, align 4
@hf_l2tp_cablel_avp_tsid_group_id = internal global i32 0, align 4
@hf_l2tp_cablel_avp_frequency = internal global i32 0, align 4
@hf_l2tp_cablel_avp_modulation = internal global i32 0, align 4
@hf_l2tp_cablel_avp_m = internal global i32 0, align 4
@hf_l2tp_cablel_avp_n = internal global i32 0, align 4
@ett_l2tp_avp = internal global i32 0, align 4
@ei_l2tp_vendor_specific_avp_data = internal global %struct.expert_field zeroinitializer, align 4
@.str.689 = private unnamed_addr constant [13 x i8] c"Unknown (%u)\00", align 1
@.str.728 = private unnamed_addr constant [8 x i8] c"Unknown\00", align 1
@.str.732 = private unnamed_addr constant [23 x i8] c"Vendor %s (%u): %s AVP\00", align 1

; Function Attrs: null_pointer_is_valid sspstrong uwtable
define internal i32 @dissect_l2tp_vnd_cablelabs_avps(ptr noundef %0, ptr noundef %1, ptr noundef %2, ptr noundef %3) #0 {
  %5 = alloca i32, align 4
  %6 = alloca ptr, align 8
  %7 = alloca ptr, align 8
  %8 = alloca ptr, align 8
  %9 = alloca ptr, align 8
  %10 = alloca i32, align 4
  %11 = alloca i32, align 4
  %12 = alloca i32, align 4
  %13 = alloca i32, align 4
  %14 = alloca i16, align 2
  %15 = alloca ptr, align 8
  %16 = alloca i32, align 4
  store ptr %0, ptr %6, align 8
  store ptr %1, ptr %7, align 8
  store ptr %2, ptr %8, align 8
  store ptr %3, ptr %9, align 8
  call void @llvm.lifetime.start.p0(i64 4, ptr %10) #13
  store i32 0, ptr %10, align 4
  call void @llvm.lifetime.start.p0(i64 4, ptr %11) #13
  call void @llvm.lifetime.start.p0(i64 4, ptr %12) #13
  call void @llvm.lifetime.start.p0(i64 4, ptr %13) #13
  call void @llvm.lifetime.start.p0(i64 2, ptr %14) #13
  call void @llvm.lifetime.start.p0(i64 8, ptr %15) #13
  %17 = load ptr, ptr %6, align 8
  %18 = load i32, ptr %10, align 4
  %19 = call zeroext i16 @tvb_get_ntohs(ptr noundef %17, i32 noundef %18)
  store i16 %19, ptr %14, align 2
  %20 = load i16, ptr %14, align 2
  %21 = zext i16 %20 to i32
  %22 = and i32 %21, 1023
  store i32 %22, ptr %13, align 4
  %23 = load ptr, ptr %6, align 8
  %24 = load i32, ptr %10, align 4
  %25 = add i32 %24, 2
  %26 = call zeroext i16 @tvb_get_ntohs(ptr noundef %23, i32 noundef %25)
  %27 = zext i16 %26 to i32
  store i32 %27, ptr %12, align 4
  %28 = load ptr, ptr %6, align 8
  %29 = load i32, ptr %10, align 4
  %30 = add i32 %29, 4
  %31 = call zeroext i16 @tvb_get_ntohs(ptr noundef %28, i32 noundef %30)
  %32 = zext i16 %31 to i32
  store i32 %32, ptr %11, align 4
  %33 = load ptr, ptr %8, align 8
  %34 = load ptr, ptr %6, align 8
  %35 = load i32, ptr %10, align 4
  %36 = load i32, ptr %13, align 4
  %37 = load i32, ptr @ett_l2tp_avp, align 4
  %38 = load i32, ptr %12, align 4
  %39 = call ptr @enterprises_lookup(i32 noundef %38, ptr noundef @.str.728)
  %40 = load i32, ptr %12, align 4
  %41 = load i32, ptr %11, align 4
  %42 = call ptr @val_to_str(i32 noundef %41, ptr noundef @cablelabs_avp_type_vals, ptr noundef @.str.689)
  %43 = call ptr (ptr, ptr, i32, i32, i32, ptr, ptr, ...) @proto_tree_add_subtree_format(ptr noundef %33, ptr noundef %34, i32 noundef %35, i32 noundef %36, i32 noundef %37, ptr noundef null, ptr noundef @.str.732, ptr noundef %39, i32 noundef %40, ptr noundef %42)
  store ptr %43, ptr %15, align 8
  %44 = load ptr, ptr %15, align 8
  %45 = load i32, ptr @hf_l2tp_avp_mandatory, align 4
  %46 = load ptr, ptr %6, align 8
  %47 = load i32, ptr %10, align 4
  %48 = call ptr @proto_tree_add_item(ptr noundef %44, i32 noundef %45, ptr noundef %46, i32 noundef %47, i32 noundef 2, i32 noundef 0)
  %49 = load ptr, ptr %15, align 8
  %50 = load i32, ptr @hf_l2tp_avp_hidden, align 4
  %51 = load ptr, ptr %6, align 8
  %52 = load i32, ptr %10, align 4
  %53 = call ptr @proto_tree_add_item(ptr noundef %49, i32 noundef %50, ptr noundef %51, i32 noundef %52, i32 noundef 2, i32 noundef 0)
  %54 = load ptr, ptr %15, align 8
  %55 = load i32, ptr @hf_l2tp_avp_length, align 4
  %56 = load ptr, ptr %6, align 8
  %57 = load i32, ptr %10, align 4
  %58 = call ptr @proto_tree_add_item(ptr noundef %54, i32 noundef %55, ptr noundef %56, i32 noundef %57, i32 noundef 2, i32 noundef 0)
  %59 = load i16, ptr %14, align 2
  %60 = zext i16 %59 to i32
  %61 = and i32 %60, 16384
  %62 = icmp ne i32 %61, 0
  br i1 %62, label %63, label %68

63:                                               ; preds = %4
  %64 = load i32, ptr %13, align 4
  %65 = load i32, ptr %10, align 4
  %66 = add i32 %65, %64
  store i32 %66, ptr %10, align 4
  %67 = load i32, ptr %10, align 4
  store i32 %67, ptr %5, align 4
  store i32 1, ptr %16, align 4
  br label %187

68:                                               ; preds = %4
  %69 = load i32, ptr %10, align 4
  %70 = add i32 %69, 2
  store i32 %70, ptr %10, align 4
  %71 = load i32, ptr %13, align 4
  %72 = sub i32 %71, 2
  store i32 %72, ptr %13, align 4
  %73 = load ptr, ptr %15, align 8
  %74 = load i32, ptr @hf_l2tp_avp_vendor_id, align 4
  %75 = load ptr, ptr %6, align 8
  %76 = load i32, ptr %10, align 4
  %77 = call ptr @proto_tree_add_item(ptr noundef %73, i32 noundef %74, ptr noundef %75, i32 noundef %76, i32 noundef 2, i32 noundef 0)
  %78 = load i32, ptr %10, align 4
  %79 = add i32 %78, 2
  store i32 %79, ptr %10, align 4
  %80 = load i32, ptr %13, align 4
  %81 = sub i32 %80, 2
  store i32 %81, ptr %13, align 4
  %82 = load ptr, ptr %15, align 8
  %83 = load i32, ptr @hf_l2tp_cablelabs_avp_type, align 4
  %84 = load ptr, ptr %6, align 8
  %85 = load i32, ptr %10, align 4
  %86 = load i32, ptr %11, align 4
  %87 = call ptr @proto_tree_add_uint(ptr noundef %82, i32 noundef %83, ptr noundef %84, i32 noundef %85, i32 noundef 2, i32 noundef %86)
  %88 = load i32, ptr %10, align 4
  %89 = add i32 %88, 2
  store i32 %89, ptr %10, align 4
  %90 = load i32, ptr %13, align 4
  %91 = sub i32 %90, 2
  store i32 %91, ptr %13, align 4
  %92 = load i32, ptr %11, align 4
  switch i32 %92, label %175 [
    i32 101, label %93
    i32 103, label %117
    i32 105, label %137
  ]

93:                                               ; preds = %68
  %94 = load ptr, ptr %15, align 8
  %95 = load i32, ptr @hf_l2tp_cablel_avp_l_bit, align 4
  %96 = load ptr, ptr %6, align 8
  %97 = load i32, ptr %10, align 4
  %98 = call ptr @proto_tree_add_item(ptr noundef %94, i32 noundef %95, ptr noundef %96, i32 noundef %97, i32 noundef 2, i32 noundef 0)
  %99 = load ptr, ptr %15, align 8
  %100 = load i32, ptr @hf_l2tp_cablel_avp_tsid_group_id, align 4
  %101 = load ptr, ptr %6, align 8
  %102 = load i32, ptr %10, align 4
  %103 = call ptr @proto_tree_add_item(ptr noundef %99, i32 noundef %100, ptr noundef %101, i32 noundef %102, i32 noundef 2, i32 noundef 0)
  %104 = load i32, ptr %10, align 4
  %105 = add i32 %104, 2
  store i32 %105, ptr %10, align 4
  %106 = load i32, ptr %13, align 4
  %107 = sub i32 %106, 2
  store i32 %107, ptr %13, align 4
  %108 = load ptr, ptr %15, align 8
  %109 = load i32, ptr @hf_l2tp_cablel_avp_frequency, align 4
  %110 = load ptr, ptr %6, align 8
  %111 = load i32, ptr %10, align 4
  %112 = call ptr @proto_tree_add_item(ptr noundef %108, i32 noundef %109, ptr noundef %110, i32 noundef %111, i32 noundef 4, i32 noundef 0)
  %113 = load i32, ptr %13, align 4
  %114 = sub i32 %113, 4
  store i32 %114, ptr %13, align 4
  %115 = load i32, ptr %10, align 4
  %116 = add i32 %115, 4
  store i32 %116, ptr %10, align 4
  br label %182

117:                                              ; preds = %68
  %118 = load ptr, ptr %15, align 8
  %119 = load i32, ptr @hf_l2tp_cablel_avp_l_bit, align 4
  %120 = load ptr, ptr %6, align 8
  %121 = load i32, ptr %10, align 4
  %122 = call ptr @proto_tree_add_item(ptr noundef %118, i32 noundef %119, ptr noundef %120, i32 noundef %121, i32 noundef 2, i32 noundef 0)
  %123 = load ptr, ptr %15, align 8
  %124 = load i32, ptr @hf_l2tp_cablel_avp_tsid_group_id, align 4
  %125 = load ptr, ptr %6, align 8
  %126 = load i32, ptr %10, align 4
  %127 = call ptr @proto_tree_add_item(ptr noundef %123, i32 noundef %124, ptr noundef %125, i32 noundef %126, i32 noundef 2, i32 noundef 0)
  %128 = load ptr, ptr %15, align 8
  %129 = load i32, ptr @hf_l2tp_cablel_avp_modulation, align 4
  %130 = load ptr, ptr %6, align 8
  %131 = load i32, ptr %10, align 4
  %132 = call ptr @proto_tree_add_item(ptr noundef %128, i32 noundef %129, ptr noundef %130, i32 noundef %131, i32 noundef 2, i32 noundef 0)
  %133 = load i32, ptr %10, align 4
  %134 = add i32 %133, 2
  store i32 %134, ptr %10, align 4
  %135 = load i32, ptr %13, align 4
  %136 = sub i32 %135, 2
  store i32 %136, ptr %13, align 4
  br label %182

137:                                              ; preds = %68
  %138 = load ptr, ptr %15, align 8
  %139 = load i32, ptr @hf_l2tp_cablel_avp_l_bit, align 4
  %140 = load ptr, ptr %6, align 8
  %141 = load i32, ptr %10, align 4
  %142 = call ptr @proto_tree_add_item(ptr noundef %138, i32 noundef %139, ptr noundef %140, i32 noundef %141, i32 noundef 2, i32 noundef 0)
  %143 = load ptr, ptr %15, align 8
  %144 = load i32, ptr @hf_l2tp_cablel_avp_tsid_group_id, align 4
  %145 = load ptr, ptr %6, align 8
  %146 = load i32, ptr %10, align 4
  %147 = call ptr @proto_tree_add_item(ptr noundef %143, i32 noundef %144, ptr noundef %145, i32 noundef %146, i32 noundef 2, i32 noundef 0)
  %148 = load i32, ptr %10, align 4
  %149 = add i32 %148, 2
  store i32 %149, ptr %10, align 4
  %150 = load i32, ptr %13, align 4
  %151 = sub i32 %150, 2
  store i32 %151, ptr %13, align 4
  br label %152

152:                                              ; preds = %155, %137
  %153 = load i32, ptr %13, align 4
  %154 = icmp ugt i32 %153, 0
  br i1 %154, label %155, label %174

155:                                              ; preds = %152
  %156 = load ptr, ptr %15, align 8
  %157 = load i32, ptr @hf_l2tp_cablel_avp_m, align 4
  %158 = load ptr, ptr %6, align 8
  %159 = load i32, ptr %10, align 4
  %160 = call ptr @proto_tree_add_item(ptr noundef %156, i32 noundef %157, ptr noundef %158, i32 noundef %159, i32 noundef 2, i32 noundef 0)
  %161 = load i32, ptr %10, align 4
  %162 = add i32 %161, 2
  store i32 %162, ptr %10, align 4
  %163 = load i32, ptr %13, align 4
  %164 = sub i32 %163, 2
  store i32 %164, ptr %13, align 4
  %165 = load ptr, ptr %15, align 8
  %166 = load i32, ptr @hf_l2tp_cablel_avp_n, align 4
  %167 = load ptr, ptr %6, align 8
  %168 = load i32, ptr %10, align 4
  %169 = call ptr @proto_tree_add_item(ptr noundef %165, i32 noundef %166, ptr noundef %167, i32 noundef %168, i32 noundef 2, i32 noundef 0)
  %170 = load i32, ptr %10, align 4
  %171 = add i32 %170, 2
  store i32 %171, ptr %10, align 4
  %172 = load i32, ptr %13, align 4
  %173 = sub i32 %172, 2
  store i32 %173, ptr %13, align 4
  br label %152, !llvm.loop !8

174:                                              ; preds = %152
  br label %182

175:                                              ; preds = %68
  %176 = load ptr, ptr %15, align 8
  %177 = load ptr, ptr %7, align 8
  %178 = load ptr, ptr %6, align 8
  %179 = load i32, ptr %10, align 4
  %180 = load i32, ptr %13, align 4
  %181 = call ptr @proto_tree_add_expert(ptr noundef %176, ptr noundef %177, ptr noundef @ei_l2tp_vendor_specific_avp_data, ptr noundef %178, i32 noundef %179, i32 noundef %180)
  br label %182

182:                                              ; preds = %175, %174, %117, %93
  %183 = load i32, ptr %13, align 4
  %184 = load i32, ptr %10, align 4
  %185 = add i32 %184, %183
  store i32 %185, ptr %10, align 4
  %186 = load i32, ptr %10, align 4
  store i32 %186, ptr %5, align 4
  store i32 1, ptr %16, align 4
  br label %187

187:                                              ; preds = %182, %63
  call void @llvm.lifetime.end.p0(i64 8, ptr %15) #13
  call void @llvm.lifetime.end.p0(i64 2, ptr %14) #13
  call void @llvm.lifetime.end.p0(i64 4, ptr %13) #13
  call void @llvm.lifetime.end.p0(i64 4, ptr %12) #13
  call void @llvm.lifetime.end.p0(i64 4, ptr %11) #13
  call void @llvm.lifetime.end.p0(i64 4, ptr %10) #13
  %188 = load i32, ptr %5, align 4
  ret i32 %188
}