; Function Attrs: null_pointer_is_valid sspstrong uwtable
define internal i32 @dissect_l2tp_vnd_cablelabs_avps(ptr noundef %0, ptr noundef %1, ptr noundef %2, ptr readnone captures(none) %3) #0 {
  %5 = tail call zeroext i16 @tvb_get_ntohs(ptr noundef %0, i32 noundef 0)
  %6 = zext i16 %5 to i32
  %7 = and i32 %6, 1023
  %8 = tail call zeroext i16 @tvb_get_ntohs(ptr noundef %0, i32 noundef 2)
  %9 = zext i16 %8 to i32
  %10 = tail call zeroext i16 @tvb_get_ntohs(ptr noundef %0, i32 noundef 4)
  %11 = zext i16 %10 to i32
  %12 = load i32, ptr @ett_l2tp_avp, align 4
  %13 = tail call ptr @enterprises_lookup(i32 noundef %9, ptr noundef nonnull @.str.728)
  %14 = tail call ptr @val_to_str(i32 noundef %11, ptr noundef nonnull @cablelabs_avp_type_vals, ptr noundef nonnull @.str.689)
  %15 = tail call ptr (ptr, ptr, i32, i32, i32, ptr, ptr, ...) @proto_tree_add_subtree_format(ptr noundef %2, ptr noundef %0, i32 noundef 0, i32 noundef %7, i32 noundef %12, ptr noundef null, ptr noundef nonnull @.str.732, ptr noundef %13, i32 noundef %9, ptr noundef %14)
  %16 = load i32, ptr @hf_l2tp_avp_mandatory, align 4
  %17 = tail call ptr @proto_tree_add_item(ptr noundef %15, i32 noundef %16, ptr noundef %0, i32 noundef 0, i32 noundef 2, i32 noundef 0)
  %18 = load i32, ptr @hf_l2tp_avp_hidden, align 4
  %19 = tail call ptr @proto_tree_add_item(ptr noundef %15, i32 noundef %18, ptr noundef %0, i32 noundef 0, i32 noundef 2, i32 noundef 0)
  %20 = load i32, ptr @hf_l2tp_avp_length, align 4
  %21 = tail call ptr @proto_tree_add_item(ptr noundef %15, i32 noundef %20, ptr noundef %0, i32 noundef 0, i32 noundef 2, i32 noundef 0)
  %22 = and i32 %6, 16384
  %.not = icmp eq i32 %22, 0
  br i1 %.not, label %23, label %61

23:                                               ; preds = %4
  %24 = load i32, ptr @hf_l2tp_avp_vendor_id, align 4
  %25 = tail call ptr @proto_tree_add_item(ptr noundef %15, i32 noundef %24, ptr noundef %0, i32 noundef 2, i32 noundef 2, i32 noundef 0)
  %26 = load i32, ptr @hf_l2tp_cablelabs_avp_type, align 4
  %27 = tail call ptr @proto_tree_add_uint(ptr noundef %15, i32 noundef %26, ptr noundef %0, i32 noundef 4, i32 noundef 2, i32 noundef %11)
  switch i16 %10, label %57 [
    i16 101, label %28
    i16 103, label %36
    i16 105, label %44
  ]

28:                                               ; preds = %23
  %29 = load i32, ptr @hf_l2tp_cablel_avp_l_bit, align 4
  %30 = tail call ptr @proto_tree_add_item(ptr noundef %15, i32 noundef %29, ptr noundef %0, i32 noundef 6, i32 noundef 2, i32 noundef 0)
  %31 = load i32, ptr @hf_l2tp_cablel_avp_tsid_group_id, align 4
  %32 = tail call ptr @proto_tree_add_item(ptr noundef %15, i32 noundef %31, ptr noundef %0, i32 noundef 6, i32 noundef 2, i32 noundef 0)
  %33 = load i32, ptr @hf_l2tp_cablel_avp_frequency, align 4
  %34 = tail call ptr @proto_tree_add_item(ptr noundef %15, i32 noundef %33, ptr noundef %0, i32 noundef 8, i32 noundef 4, i32 noundef 0)
  %35 = add nsw i32 %7, -12
  br label %.loopexit

36:                                               ; preds = %23
  %37 = load i32, ptr @hf_l2tp_cablel_avp_l_bit, align 4
  %38 = tail call ptr @proto_tree_add_item(ptr noundef %15, i32 noundef %37, ptr noundef %0, i32 noundef 6, i32 noundef 2, i32 noundef 0)
  %39 = load i32, ptr @hf_l2tp_cablel_avp_tsid_group_id, align 4
  %40 = tail call ptr @proto_tree_add_item(ptr noundef %15, i32 noundef %39, ptr noundef %0, i32 noundef 6, i32 noundef 2, i32 noundef 0)
  %41 = load i32, ptr @hf_l2tp_cablel_avp_modulation, align 4
  %42 = tail call ptr @proto_tree_add_item(ptr noundef %15, i32 noundef %41, ptr noundef %0, i32 noundef 6, i32 noundef 2, i32 noundef 0)
  %43 = add nsw i32 %7, -8
  br label %.loopexit

44:                                               ; preds = %23
  %45 = load i32, ptr @hf_l2tp_cablel_avp_l_bit, align 4
  %46 = tail call ptr @proto_tree_add_item(ptr noundef %15, i32 noundef %45, ptr noundef %0, i32 noundef 6, i32 noundef 2, i32 noundef 0)
  %47 = load i32, ptr @hf_l2tp_cablel_avp_tsid_group_id, align 4
  %48 = tail call ptr @proto_tree_add_item(ptr noundef %15, i32 noundef %47, ptr noundef %0, i32 noundef 6, i32 noundef 2, i32 noundef 0)
  %49 = add nsw i32 %7, -8
  %.not9596 = icmp eq i32 %49, 0
  br i1 %.not9596, label %.loopexit, label %.lr.ph

.lr.ph:                                           ; preds = %44, %.lr.ph
  %.198 = phi i32 [ %55, %.lr.ph ], [ 8, %44 ]
  %.19497 = phi i32 [ %56, %.lr.ph ], [ %49, %44 ]
  %50 = load i32, ptr @hf_l2tp_cablel_avp_m, align 4
  %51 = tail call ptr @proto_tree_add_item(ptr noundef %15, i32 noundef %50, ptr noundef %0, i32 noundef %.198, i32 noundef 2, i32 noundef 0)
  %52 = or disjoint i32 %.198, 2
  %53 = load i32, ptr @hf_l2tp_cablel_avp_n, align 4
  %54 = tail call ptr @proto_tree_add_item(ptr noundef %15, i32 noundef %53, ptr noundef %0, i32 noundef %52, i32 noundef 2, i32 noundef 0)
  %55 = add i32 %.198, 4
  %56 = add i32 %.19497, -4
  %.not95 = icmp eq i32 %56, 0
  br i1 %.not95, label %.loopexit, label %.lr.ph, !llvm.loop !8

57:                                               ; preds = %23
  %58 = add nsw i32 %7, -6
  %59 = tail call ptr @proto_tree_add_expert(ptr noundef %15, ptr noundef %1, ptr noundef nonnull @ei_l2tp_vendor_specific_avp_data, ptr noundef %0, i32 noundef 6, i32 noundef %58)
  br label %.loopexit

.loopexit:                                        ; preds = %.lr.ph, %44, %57, %36, %28
  %.093 = phi i32 [ %58, %57 ], [ %43, %36 ], [ %35, %28 ], [ 0, %44 ], [ 0, %.lr.ph ]
  %.092 = phi i32 [ 6, %57 ], [ 8, %36 ], [ 12, %28 ], [ 8, %44 ], [ %55, %.lr.ph ]
  %60 = add i32 %.092, %.093
  br label %61

61:                                               ; preds = %4, %.loopexit
  %.0 = phi i32 [ %60, %.loopexit ], [ %7, %4 ]
  ret i32 %.0
}